(lp0
Vauto_customization
p1
aVirrigation
p2
aVchinese
p3
aVdog_parks
p4
aVhorseback_riding
p5
aVhome_window_tinting
p6
aVguest_houses
p7
aVskating_rinks
p8
aVdesserts
p9
aVtours
p10
aVgeneral_festivals
p11
aVpasta_shops
p12
aVskin_care
p13
aVmountain_biking
p14
aVrecording_&_rehearsal_studios
p15
aVvietnamese
p16
aVpainters
p17
aVpool_halls
p18
aVmiddle_schools_&_high_schools
p19
aVfurniture_stores
p20
aVcosmetics_&_beauty_supply
p21
aVpersonal_injury_law
p22
aVski_resorts
p23
aVtree_services
p24
aVflowers_&_gifts
p25
aVcar_stereo_installation
p26
aVchiropractors
p27
aVegyptian
p28
aVpropane
p29
aVautomotive
p30
aVflea_markets
p31
aVbeer,_wine_&_spirits
p32
aVknitting_supplies
p33
aVhair_removal
p34
aVday_camps
p35
aVfurniture_repair
p36
aVrock_climbing
p37
aVcommercial_real_estate
p38
aVbistros
p39
aVnail_salons
p40
aVurologists
p41
aVprint_media
p42
aVorthopedists
p43
aVshopping_centers
p44
aVcajun_creole
p45
aVvenues_&_event_spaces
p46
aVpoutineries
p47
aVtutoring_centers
p48
aVday_spas
p49
aVmedical_centers
p50
aVhostels
p51
aVoil_change_stations
p52
aVwedding_planning
p53
aVirish_pub
p54
aVmediterranean
p55
aVjapanese
p56
aVcultural_center
p57
aVtires
p58
aVelectricians
p59
aVpulmonologist
p60
aVgolf_equipment_shops
p61
aVbail_bondsmen
p62
aVhealth_markets
p63
aVnotaries
p64
aVcountry_dance_halls
p65
aVcouriers_&_delivery_services
p66
aVdrugstores
p67
aVinvesting
p68
aVsushi_bars
p69
aVpaddleboarding
p70
aVwomen's_clothing
p71
aVindian
p72
aVcoffee_&_tea
p73
aVchurches
p74
aVtrinidadian
p75
aVfast_food
p76
aVappliances_&_repair
p77
aVtransportation
p78
aVrefinishing_services
p79
aVsummer_camps
p80
aVrheumatologists
p81
aVhandyman
p82
aVgluten-free
p83
aVelementary_schools
p84
aVlakes
p85
aVmedical_supplies
p86
aVscuba_diving
p87
aVbakeries
p88
aVcupcakes
p89
aVpiano_bars
p90
aVluggage
p91
aVvegetarian
p92
aVturkish
p93
aVit_services_&_computer_repair
p94
aVpiercing
p95
aVlighting_fixtures_&_equipment
p96
aVmuseums
p97
aVcomic_books
p98
aVhome_staging
p99
aVadvertising
p100
aVbookstores
p101
aVneurologist
p102
aVscreen_printing
p103
aVhookah_bars
p104
aVmassage
p105
aVtrophy_shops
p106
aVlimos
p107
aVhiking
p108
aVbuses
p109
aVsocial_clubs
p110
aVethiopian
p111
aVprivate_investigation
p112
aVappliances
p113
aVfestivals
p114
aVtravel_services
p115
aVhotels
p116
aVprinting_services
p117
aVsmog_check_stations
p118
aVmakeup_artists
p119
aVtalent_agencies
p120
aVdonuts
p121
aVcheck_cashing_pay-day_loans
p122
aVbanks_&_credit_unions
p123
aVbarre_classes
p124
aVaustralian
p125
aVcreperies
p126
aVtex-mex
p127
aVpest_control
p128
aVbelgian
p129
aVdentists
p130
aVwindows_installation
p131
aVspeech_therapists
p132
aVbus_tours
p133
aVadult
p134
aVtapas_bars
p135
aVrehabilitation_center
p136
aVvinyl_records
p137
aVbubble_tea
p138
aVpermanent_makeup
p139
aVkaraoke
p140
aVrecreation_centers
p141
aVsalad
p142
aVjunk_removal_&_hauling
p143
aVsoup
p144
aVpressure_washers
p145
aVvideographers
p146
aVbankruptcy_law
p147
aVevent_photography
p148
aVmiddle_eastern
p149
aVcourthouses
p150
aVbeer_garden
p151
aVsports_bars
p152
aVbarbers
p153
aVelectronics_repair
p154
aVskydiving
p155
aVhotels_&_travel
p156
aVcomedy_clubs
p157
aVoffice_equipment
p158
aVcantonese
p159
aVbuddhist_temples
p160
aVpublic_transportation
p161
aVarts_&_crafts
p162
aVhang_gliding
p163
aVtai_chi
p164
aVboxing
p165
aVpet_training
p166
aVmartial_arts
p167
aVrolfing
p168
aVhindu_temples
p169
aVformal_wear
p170
aVpizza
p171
aVmeditation_centers
p172
aVrv_dealers
p173
aVpole_dancing_classes
p174
aVmotorcycle_repair
p175
aVbrasseries
p176
aVcolleges_&_universities
p177
aVsouthern
p178
aVhome_theatre_installation
p179
aVcampgrounds
p180
aVpaintball
p181
aVbusiness_law
p182
aVhobby_shops
p183
aVgardeners
p184
aVrv_parks
p185
aVgutter_services
p186
aVdim_sum
p187
aVtoy_stores
p188
aVparty_supplies
p189
aVsurfing
p190
aVcooking_classes
p191
aVtrain_stations
p192
aVvape_shops
p193
aVprosthetics
p194
aVreflexology
p195
aVphoto_booth_rentals
p196
aVethnic_food
p197
aVspecialty_schools
p198
aVplumbing
p199
aVinternal_medicine
p200
aVbartenders
p201
aVframing
p202
aVwheel_&_rim_repair
p203
aVmexican
p204
aVwholesale_stores
p205
aVcsa
p206
aVcosmetic_dentists
p207
aVresorts
p208
aVcandy_stores
p209
aVlaboratory_testing
p210
aVaustrian
p211
aVorthotics
p212
aVgun_rifle_ranges
p213
aVauto_glass_services
p214
aVdjs
p215
aVhome_health_care
p216
aVhome_organization
p217
aVbagels
p218
aVregistration_services
p219
aVsurgeons
p220
aVstreet_art
p221
aVfirst_aid_classes
p222
aVcurrency_exchange
p223
aVhigh_fidelity_audio_equipment
p224
aVwater_delivery
p225
aVreal_estate_law
p226
aVacupuncture
p227
aVinternet_service_providers
p228
aVsoccer
p229
aVsolar_installation
p230
aVdistilleries
p231
aVargentine
p232
aVevent_planning_&_services
p233
aVboat_charters
p234
aVgeneral_litigation
p235
aVfood
p236
aVsports_wear
p237
aVpet_stores
p238
aVszechuan
p239
aVpersonal_shopping
p240
aVcarpet_installation
p241
aVreiki
p242
aVairports
p243
aVlingerie
p244
aVwigs
p245
aVgo_karts
p246
aVbowling
p247
aVallergists
p248
aVswimming_lessons_schools
p249
aVhot_air_balloons
p250
aVpatisserie_cake_shop
p251
aVmeat_shops
p252
aVreal_estate
p253
aVlandmarks_&_historical_buildings
p254
aVarts_&_entertainment
p255
aVwatch_repair
p256
aVchicken_wings
p257
aVgay_bars
p258
aVmodern_european
p259
aVdepartments_of_motor_vehicles
p260
aVeducational_services
p261
aVfarmers_market
p262
aVtrainers
p263
aVcasinos
p264
aVoriental
p265
aVcards_&_stationery
p266
aVclowns
p267
aVelectronics
p268
aVskate_parks
p269
aVpreschools
p270
aVpersonal_chefs
p271
aVteppanyaki
p272
aVauto_parts_&_supplies
p273
aVcustomized_merchandise
p274
aVlaser_tag
p275
aVphotography_stores_&_services
p276
aVamateur_sports_teams
p277
aVmedical_spas
p278
aVtattoo_removal
p279
aVticket_sales
p280
aVvideos_&_video_game_rental
p281
aVoral_surgeons
p282
aVcomputers
p283
aVbritish
p284
aVmetal_fabricators
p285
aVmusicians
p286
aVdog_walkers
p287
aVdrywall_installation_&_repair
p288
aVpediatric_dentists
p289
aVhair_extensions
p290
aVwok
p291
aVpool_cleaners
p292
aVfirearm_training
p293
aVart_supplies
p294
aVjuice_bars_&_smoothies
p295
aVaudiologist
p296
aVoncologist
p297
aVsteakhouses
p298
aVdata_recovery
p299
aVbeverage_store
p300
aVcooking_schools
p301
aVauto_detailing
p302
aVtanning_beds
p303
aVspanish
p304
aVairport_lounges
p305
aVdisc_golf
p306
aVradio_stations
p307
aVyelp_events
p308
aVsewing_&_alterations
p309
aVmen's_clothing
p310
aVantiques
p311
aVboating
p312
aVcar_rental
p313
aVmortgage_brokers
p314
aVpakistani
p315
aVswiss_food
p316
aVshaved_ice
p317
aVtax_services
p318
aVauto_repair
p319
aVhealth_&_medical
p320
aVcoffee_&_tea_supplies
p321
aVpub_food
p322
aVdo-it-yourself_food
p323
aVdoctors
p324
aVophthalmologists
p325
aVthai
p326
aVflowers
p327
aVnaturopathic_holistic
p328
aVbasketball_courts
p329
aVgrocery
p330
aVhair_salons
p331
aVeastern_german
p332
aVchocolatiers_&_shops
p333
aVscandinavian
p334
aVdiagnostic_services
p335
aVtaxis
p336
aVdance_studios
p337
aVrafting_kayaking
p338
aVuniforms
p339
aVprofessional_services
p340
aVmotorcycle_dealers
p341
aVchild_care_&_day_care
p342
aVlocal_flavor
p343
aVboot_camps
p344
aVdelis
p345
aVanesthesiologists
p346
aVtanning
p347
aVhalal
p348
aVcar_dealers
p349
aVvegan
p350
aVvalet_services
p351
aVrugs
p352
aVuniversity_housing
p353
aVemployment_agencies
p354
aVmedical_transportation
p355
aVcosmetic_surgeons
p356
aVgreek
p357
aVburmese
p358
aVparks
p359
aVguns_&_ammo
p360
aVhats
p361
aVsandwiches
p362
aVfinancial_advising
p363
aVkorean
p364
aVart_galleries
p365
aVrace_tracks
p366
aVukrainian
p367
aVwalking_tours
p368
aVbattery_stores
p369
aVafrican
p370
aVarchitects
p371
aVaccountants
p372
aVmobile_phones
p373
aVpublic_plazas
p374
aVcollege_counseling
p375
aVarchery
p376
aVcuban
p377
aVauto_loan_providers
p378
aVpop-up_shops
p379
aVseafood
p380
aVhealth_retreats
p381
aVfruits_&_veggies
p382
aVpool_&_hot_tub_service
p383
aVinterior_design
p384
aVmass_media
p385
aVdriving_schools
p386
aVprofessional_sports_teams
p387
aVchampagne_bars
p388
aVcomfort_food
p389
aVconvenience_stores
p390
aVshared_office_spaces
p391
aVbike_rentals
p392
aVgolf
p393
aVgerman
p394
aVcycling_classes
p395
aVtruck_rental
p396
aVpost_offices
p397
aVmoroccan
p398
aVorganic_stores
p399
aVhorse_racing
p400
aVbikes
p401
aVcambodian
p402
aVveterinarians
p403
aVsoul_food
p404
aVlegal_services
p405
aVkeys_&_locksmiths
p406
aVvideo_film_production
p407
aVkitchen_&_bath
p408
aVbeer_gardens
p409
aVendocrinologists
p410
aVfirewood
p411
aVparty_bus_rentals
p412
aVpodiatrists
p413
aVarabian
p414
aVshutters
p415
aVpsychics_&_astrologers
p416
aVart_classes
p417
aVcoffeeshops
p418
aVlocal_services
p419
aVmagicians
p420
aVdance_clubs
p421
aVfire_protection_services
p422
aVhungarian
p423
aVgas_&_service_stations
p424
aVcounseling_&_mental_health
p425
aVdonairs
p426
aVsignmaking
p427
aVflight_instruction
p428
aVhome_&_garden
p429
aVactive_life
p430
aVmusical_instrument_services
p431
aVhorse_boarding
p432
aVwalk-in_clinics
p433
aVhome_services
p434
aVmosques
p435
aVbooks,_mags,_music_&_video
p436
aVmalaysian
p437
aVcolombian
p438
aVfood_banks
p439
aVindonesian
p440
aVfertility
p441
aVofficiants
p442
aVrestaurants
p443
aVbespoke_clothing
p444
aVbars
p445
aVthrift_stores
p446
aVhome_cleaning
p447
aVswimming_pools
p448
aVtaiwanese
p449
aVtea_rooms
p450
aVproperty_management
p451
aVmailbox_centers
p452
aVreligious_schools
p453
aVtobacco_shops
p454
aVparking
p455
aVeastern_european
p456
aVreligious_organizations
p457
aVfood_tours
p458
aVwindshield_installation_&_repair
p459
aVnewspapers_&_magazines
p460
aVasian_fusion
p461
aVswimwear
p462
aVurgent_care
p463
aVlibraries
p464
aVpets
p465
aVphysical_therapy
p466
aVbarbeque
p467
aVdry_cleaning_&_laundry
p468
aVseptic_services
p469
aVart_schools
p470
aVrecycling_center
p471
aVhardware_stores
p472
aVfrench
p473
aVgastropubs
p474
aVwindow_washing
p475
aVinternet_cafes
p476
aVblow_dry_out_services
p477
aVpsychologists
p478
aVmovers
p479
aVcafes
p480
aVosteopathic_physicians
p481
aVgarage_door_services
p482
aVsugaring
p483
aVspecial_education
p484
aVkosher
p485
aVdivorce_&_family_law
p486
aVpita
p487
aVbody_shops
p488
aVwine_tours
p489
aVbike_repair_maintenance
p490
aVdiners
p491
aVleather_goods
p492
aVhot_dogs
p493
aVleisure_centers
p494
aVgold_buyers
p495
aVcabinetry
p496
aVfashion
p497
aVarcades
p498
aVeyewear_&_opticians
p499
aVchildren's_clothing
p500
aVtelecommunications
p501
aVtrampoline_parks
p502
aVroofing
p503
aVmasonry_concrete
p504
aVsecurity_services
p505
aVbuffets
p506
aVairlines
p507
aVparty_equipment_rentals
p508
aVfamily_practice
p509
aVadult_entertainment
p510
aVweb_design
p511
aVchristmas_markets
p512
aVbavarian
p513
aVgolf_equipment
p514
aVshopping
p515
aVperforming_arts
p516
aVseafood_markets
p517
aVfinancial_services
p518
aVfood_stands
p519
aVapartments
p520
aVbrewing_supplies
p521
aVmotorcycle_rental
p522
aVramen
p523
aVwine_bars
p524
aVpawn_shops
p525
aVradiologists
p526
aVmidwives
p527
aVstreet_vendors
p528
aVfishing
p529
aVmobile_phone_repair
p530
aVscottish
p531
aVlebanese
p532
aVsports_medicine
p533
aVlanguage_schools
p534
aVchimney_sweeps
p535
aVmassage_schools
p536
aVeyelash_service
p537
aVuzbek
p538
aVoccupational_therapy
p539
aVcareer_counseling
p540
aVmongolian
p541
aVself_storage
p542
aVplaygrounds
p543
aVtraditional_chinese_medicine
p544
aVdelicatessen
p545
aVcpr_classes
p546
aVaccessories
p547
aVsingaporean
p548
aVmassage_therapy
p549
aVinsulation_installation
p550
aVlandscape_architects
p551
aVoutlet_stores
p552
aVkids_activities
p553
aVpersonal_assistants
p554
aVmusic_venues
p555
aVtattoo
p556
aVfireplace_services
p557
aVbuilding_supplies
p558
aVobstetricians_&_gynecologists
p559
aVlactation_services
p560
aVbutcher
p561
aVrv_repair
p562
aVdiscount_store
p563
aVmatchmakers
p564
aVherbs_&_spices
p565
aVlaser_hair_removal
p566
aVendodontists
p567
aVfuneral_services_&_cemeteries
p568
aVsession_photography
p569
aVlawyers
p570
aVamerican_(traditional)
p571
aVshredding_services
p572
aVbreakfast_&_brunch
p573
aVpubs
p574
aVphotographers
p575
aVemployment_law
p576
aVcontractors
p577
aVclimbing
p578
aVafghan
p579
aVsalvadoran
p580
aVdive_bars
p581
aVbaby_gear_&_furniture
p582
aVpayroll_services
p583
aVcocktail_bars
p584
aVpiano_services
p585
aVburgers
p586
aVfood_trucks
p587
aVtrains
p588
aVshipping_centers
p589
aVcheese_shops
p590
aVscreen_printing_t-shirt_printing
p591
aVmusic_&_dvds
p592
aVvacation_rental_agents
p593
aVreal_estate_agents
p594
aVspecialty_food
p595
aVfurniture_reupholstery
p596
aVreal_estate_services
p597
aVperiodontists
p598
aVvideo_game_stores
p599
aVpolish
p600
aVcabaret
p601
aVestate_planning_law
p602
aVheating_&_air_conditioning_hvac
p603
aVjewelry_repair
p604
aVkebab
p605
aVflooring
p606
aVcaterers
p607
aVpharmacy
p608
aVglass_&_mirrors
p609
aVcardiologists
p610
aVbaden
p611
aVbridal
p612
aVbeer_bar
p613
aVnutritionists
p614
aVhimalayan_nepalese
p615
aVgastroenterologist
p616
aVoptometrists
p617
aVtest_preparation
p618
aVbotanical_gardens
p619
aVused,_vintage_&_consignment
p620
aVpolice_departments
p621
aVretirement_homes
p622
aVmini_golf
p623
aVadult_education
p624
aVmusical_instruments_&_teachers
p625
aVcommunity_service_non-profit
p626
aVtapas_small_plates
p627
aVdamage_restoration
p628
aVused_bookstore
p629
aVear_nose_&_throat
p630
aVgyms
p631
aVzoos
p632
aVwineries
p633
aVamerican_(new)
p634
aVitalian
p635
aVportuguese
p636
aVice_cream_&_frozen_yogurt
p637
aVvocational_&_technical_school
p638
aVczech
p639
aVmattresses
p640
aVfences_&_gates
p641
aVbasque
p642
aVstadiums_&_arenas
p643
aVnanny_services
p644
aVlaotian
p645
aVgymnastics
p646
aVfalafel
p647
aVdiving
p648
aVcosmetology_schools
p649
aVsurf_shop
p650
aVpretzels
p651
aVpilates
p652
aVcaribbean
p653
aVjewelry
p654
aVanimal_shelters
p655
aVfish_&_chips
p656
aVfondue
p657
aVhome_inspectors
p658
aVchallenge_courses
p659
aVpet_adoption
p660
aVorthodontists
p661
aVaquarium_services
p662
aVgraphic_design
p663
aVshoe_stores
p664
aVsouvenir_shops
p665
aVmarketing
p666
aVpersian_iranian
p667
aVcostumes
p668
aVlice_services
p669
aVlife_coach
p670
aVlounges
p671
aVfitness_&_instruction
p672
aViberian
p673
aVparty_&_event_planning
p674
aVprivate_tutors
p675
aVbeaches
p676
aVshades_&_blinds
p677
aVhome_decor
p678
aVfilipino
p679
aVpublic_services_&_government
p680
aVjazz_&_blues
p681
aVserbo_croatian
p682
aVfabric_stores
p683
aVbeauty_&_spas
p684
aVdermatologists
p685
aVsporting_goods
p686
aVpowder_coating
p687
aVsports_clubs
p688
aVhearing_aid_providers
p689
aVcarpet_cleaning
p690
aVsynagogues
p691
aVfood_delivery_services
p692
aVhot_pot
p693
aVcannabis_clinics
p694
aVcriminal_defense_law
p695
aVhospice
p696
aVcafeteria
p697
aVbatting_cages
p698
aVtennis
p699
aVboat_repair
p700
aVbangladeshi
p701
aVtowing
p702
aVdepartment_stores
p703
aVbrazilian
p704
aVvenezuelan
p705
aVvacation_rentals
p706
aVspray_tanning
p707
aVizakaya
p708
aVhawaiian
p709
aVfireworks
p710
aVrv_rental
p711
aVlaser_eye_surgery_lasik
p712
aVnurseries_&_gardening
p713
aVdiagnostic_imaging
p714
aVlandscaping
p715
aVrussian
p716
aVhaitian
p717
aVairport_shuttles
p718
aVopera_&_ballet
p719
aVplus_size_fashion
p720
aVdominican
p721
aVflorists
p722
aVoutdoor_gear
p723
aVbreweries
p724
aVdui_law
p725
aVpet_services
p726
aVethnic_grocery
p727
aVgelato
p728
aVnightlife
p729
aVlive_raw_food
p730
aVcastles
p731
aVsecurity_systems
p732
aVirish
p733
aVcinema
p734
aVperuvian
p735
aVcar_wash
p736
aVwatches
p737
aVhair_stylists
p738
aVpsychiatrists
p739
aVhot_tub_&_pool
p740
aVcurry_sausage
p741
aVgeneral_dentistry
p742
aVeducation
p743
aVhospitals
p744
aVpet_boarding_pet_sitting
p745
aVdoor_sales_installation
p746
aVboat_dealers
p747
aVyoga
p748
aVcanadian_(new)
p749
aVsaunas
p750
aVaquariums
p751
aVgift_shops
p752
aVinsurance
p753
aVshoe_repair
p754
aVcar_share_services
p755
aVembroidery_&_crochet
p756
aVcarpeting
p757
aVcheesesteaks
p758
aVshanghainese
p759
aVtelevision_stations
p760
aVbed_&_breakfast
p761
aVutilities
p762
aVmen's_hair_salons
p763
aVimmigration_law
p764
aVface_painting
p765
aVhypnosis_hypnotherapy
p766
aVdoulas
p767
aVbike_sharing
p768
aVmotorcycle_gear
p769
aVamusement_parks
p770
aVfood_court
p771
aVtelevision_service_providers
p772
aVpet_groomers
p773
aVlatin_american
p774
aVdance_schools
p775
aVoffice_cleaning
p776
aVwaxing
p777
aVmaternity_wear
p778
aVbartending_schools
p779
aVinternational
p780
aVweight_loss_centers
p781
aVauction_houses
p782
aVpediatricians
p783
a.