(lp0
Vxgl
p1
aVca
p2
aVscb
p3
aVkhl
p4
aVil
p5
aVaz
p6
aVeln
p7
aVham
p8
aVnc
p9
aVpa
p10
aVfif
p11
aVedh
p12
aVnv
p13
aVnw
p14
aVwa
p15
aVwi
p16
aVnth
p17
aVbw
p18
aVrp
p19
aVon
p20
aVma
p21
aVmn
p22
aVmln
p23
aVqc
p24
aVsc
p25
aVor
p26
a.